target datalayout = "e-m:e-p270:32:32-p271:32:32-p272:64:64-i64:64-i128:128-f80:128-n8:16:32:64-S128"
target triple = "x86_64-pc-linux-gnu"

%struct.dt_iop_roi_t = type { i32, i32, i32, i32, float }

; Function Attrs: nounwind uwtable
define void @dt_iop_image_copy(ptr noalias noundef %0, ptr noalias noundef %1, i64 noundef %2) #0 {
  %4 = alloca ptr, align 8
  %5 = alloca ptr, align 8
  %6 = alloca i64, align 8
  store ptr %0, ptr %4, align 8, !tbaa !17
  store ptr %1, ptr %5, align 8, !tbaa !17
  store i64 %2, ptr %6, align 8, !tbaa !21
  %7 = load ptr, ptr %4, align 8, !tbaa !17
  %8 = load ptr, ptr %5, align 8, !tbaa !17
  %9 = load i64, ptr %6, align 8, !tbaa !21
  %10 = mul i64 %9, 4
  call void @llvm.memcpy.p0.p0.i64(ptr align 4 %7, ptr align 4 %8, i64 %10, i1 false)
  ret void
}

; Function Attrs: inlinehint nounwind uwtable
define internal void @dt_iop_image_copy_by_size(ptr noalias noundef %0, ptr noalias noundef %1, i64 noundef %2, i64 noundef %3, i64 noundef %4) #3 {
  %6 = alloca ptr, align 8
  %7 = alloca ptr, align 8
  %8 = alloca i64, align 8
  %9 = alloca i64, align 8
  %10 = alloca i64, align 8
  store ptr %0, ptr %6, align 8, !tbaa !17
  store ptr %1, ptr %7, align 8, !tbaa !17
  store i64 %2, ptr %8, align 8, !tbaa !21
  store i64 %3, ptr %9, align 8, !tbaa !21
  store i64 %4, ptr %10, align 8, !tbaa !21
  %11 = load ptr, ptr %6, align 8, !tbaa !17
  %12 = load ptr, ptr %7, align 8, !tbaa !17
  %13 = load i64, ptr %8, align 8, !tbaa !21
  %14 = load i64, ptr %9, align 8, !tbaa !21
  %15 = mul i64 %13, %14
  %16 = load i64, ptr %10, align 8, !tbaa !21
  %17 = mul i64 %15, %16
  call void @dt_iop_image_copy(ptr noundef %11, ptr noundef %12, i64 noundef %17)
  ret void
}

; Function Attrs: nounwind uwtable
define void @dt_iop_copy_image_roi(ptr noalias noundef %0, ptr noalias noundef %1, i64 noundef %2, ptr noalias noundef %3, ptr noalias noundef %4) #0 {
  %6 = alloca ptr, align 8
  %7 = alloca ptr, align 8
  %8 = alloca i64, align 8
  %9 = alloca ptr, align 8
  %10 = alloca ptr, align 8
  %11 = alloca i32, align 4
  %12 = alloca i32, align 4
  %13 = alloca i64, align 8
  %14 = alloca i64, align 8
  %15 = alloca ptr, align 8
  %16 = alloca ptr, align 8
  %17 = alloca i32, align 4
  %18 = alloca i32, align 4
  %19 = alloca i32, align 4
  %20 = alloca i32, align 4
  %21 = alloca i32, align 4
  %22 = alloca i64, align 8
  %23 = alloca i64, align 8
  %24 = alloca i32, align 4
  %25 = alloca i32, align 4
  store ptr %0, ptr %6, align 8, !tbaa !17
  store ptr %1, ptr %7, align 8, !tbaa !17
  store i64 %2, ptr %8, align 8, !tbaa !21
  store ptr %3, ptr %9, align 8, !tbaa !11
  store ptr %4, ptr %10, align 8, !tbaa !11
  %26 = load ptr, ptr %9, align 8, !tbaa !11
  %27 = getelementptr inbounds nuw %struct.dt_iop_roi_t, ptr %26, i32 0, i32 2
  %28 = load i32, ptr %27, align 4, !tbaa !23
  %29 = load ptr, ptr %10, align 8, !tbaa !11
  %30 = getelementptr inbounds nuw %struct.dt_iop_roi_t, ptr %29, i32 0, i32 2
  %31 = load i32, ptr %30, align 4, !tbaa !23
  %32 = icmp eq i32 %28, %31
  br i1 %32, label %33, label %53

33:                                               ; preds = %5
  %34 = load ptr, ptr %9, align 8, !tbaa !11
  %35 = getelementptr inbounds nuw %struct.dt_iop_roi_t, ptr %34, i32 0, i32 3
  %36 = load i32, ptr %35, align 4, !tbaa !26
  %37 = load ptr, ptr %10, align 8, !tbaa !11
  %38 = getelementptr inbounds nuw %struct.dt_iop_roi_t, ptr %37, i32 0, i32 3
  %39 = load i32, ptr %38, align 4, !tbaa !26
  %40 = icmp eq i32 %36, %39
  br i1 %40, label %41, label %53

41:                                               ; preds = %33
  %42 = load ptr, ptr %6, align 8, !tbaa !17
  %43 = load ptr, ptr %7, align 8, !tbaa !17
  %44 = load ptr, ptr %10, align 8, !tbaa !11
  %45 = getelementptr inbounds nuw %struct.dt_iop_roi_t, ptr %44, i32 0, i32 2
  %46 = load i32, ptr %45, align 4, !tbaa !23
  %47 = sext i32 %46 to i64
  %48 = load ptr, ptr %10, align 8, !tbaa !11
  %49 = getelementptr inbounds nuw %struct.dt_iop_roi_t, ptr %48, i32 0, i32 3
  %50 = load i32, ptr %49, align 4, !tbaa !26
  %51 = sext i32 %50 to i64
  %52 = load i64, ptr %8, align 8, !tbaa !21
  call void @dt_iop_image_copy_by_size(ptr noundef %42, ptr noundef %43, i64 noundef %47, i64 noundef %51, i64 noundef %52)
  br label %240

53:                                               ; preds = %33, %5
  call void @llvm.lifetime.start.p0(i64 4, ptr %11) #9
  %54 = load ptr, ptr %10, align 8, !tbaa !11
  %55 = getelementptr inbounds nuw %struct.dt_iop_roi_t, ptr %54, i32 0, i32 1
  %56 = load i32, ptr %55, align 4, !tbaa !27
  %57 = load ptr, ptr %9, align 8, !tbaa !11
  %58 = getelementptr inbounds nuw %struct.dt_iop_roi_t, ptr %57, i32 0, i32 1
  %59 = load i32, ptr %58, align 4, !tbaa !27
  %60 = sub nsw i32 %56, %59
  store i32 %60, ptr %11, align 4, !tbaa !13
  call void @llvm.lifetime.start.p0(i64 4, ptr %12) #9
  %61 = load ptr, ptr %10, align 8, !tbaa !11
  %62 = getelementptr inbounds nuw %struct.dt_iop_roi_t, ptr %61, i32 0, i32 0
  %63 = load i32, ptr %62, align 4, !tbaa !28
  %64 = load ptr, ptr %9, align 8, !tbaa !11
  %65 = getelementptr inbounds nuw %struct.dt_iop_roi_t, ptr %64, i32 0, i32 0
  %66 = load i32, ptr %65, align 4, !tbaa !28
  %67 = sub nsw i32 %63, %66
  store i32 %67, ptr %12, align 4, !tbaa !13
  %68 = load ptr, ptr %9, align 8, !tbaa !11
  %69 = getelementptr inbounds nuw %struct.dt_iop_roi_t, ptr %68, i32 0, i32 2
  %70 = load i32, ptr %69, align 4, !tbaa !23
  %71 = load i32, ptr %12, align 4, !tbaa !13
  %72 = sub nsw i32 %70, %71
  %73 = load ptr, ptr %10, align 8, !tbaa !11
  %74 = getelementptr inbounds nuw %struct.dt_iop_roi_t, ptr %73, i32 0, i32 2
  %75 = load i32, ptr %74, align 4, !tbaa !23
  %76 = icmp sge i32 %72, %75
  br i1 %76, label %77, label %137

77:                                               ; preds = %53
  %78 = load ptr, ptr %9, align 8, !tbaa !11
  %79 = getelementptr inbounds nuw %struct.dt_iop_roi_t, ptr %78, i32 0, i32 3
  %80 = load i32, ptr %79, align 4, !tbaa !26
  %81 = load i32, ptr %11, align 4, !tbaa !13
  %82 = sub nsw i32 %80, %81
  %83 = load ptr, ptr %10, align 8, !tbaa !11
  %84 = getelementptr inbounds nuw %struct.dt_iop_roi_t, ptr %83, i32 0, i32 3
  %85 = load i32, ptr %84, align 4, !tbaa !26
  %86 = icmp sge i32 %82, %85
  br i1 %86, label %87, label %137

87:                                               ; preds = %77
  call void @llvm.lifetime.start.p0(i64 8, ptr %13) #9
  %88 = load ptr, ptr %10, align 8, !tbaa !11
  %89 = getelementptr inbounds nuw %struct.dt_iop_roi_t, ptr %88, i32 0, i32 2
  %90 = load i32, ptr %89, align 4, !tbaa !23
  %91 = sext i32 %90 to i64
  %92 = mul i64 4, %91
  %93 = load i64, ptr %8, align 8, !tbaa !21
  %94 = mul i64 %92, %93
  store i64 %94, ptr %13, align 8, !tbaa !21
  call void @llvm.lifetime.start.p0(i64 8, ptr %14) #9
  store i64 0, ptr %14, align 8, !tbaa !21
  br label %95

95:                                               ; preds = %133, %87
  %96 = load i64, ptr %14, align 8, !tbaa !21
  %97 = load ptr, ptr %10, align 8, !tbaa !11
  %98 = getelementptr inbounds nuw %struct.dt_iop_roi_t, ptr %97, i32 0, i32 3
  %99 = load i32, ptr %98, align 4, !tbaa !26
  %100 = sext i32 %99 to i64
  %101 = icmp ult i64 %96, %100
  br i1 %101, label %103, label %102

102:                                              ; preds = %95
  call void @llvm.lifetime.end.p0(i64 8, ptr %14) #9
  br label %136

103:                                              ; preds = %95
  call void @llvm.lifetime.start.p0(i64 8, ptr %15) #9
  %104 = load ptr, ptr %6, align 8, !tbaa !17
  %105 = load i64, ptr %8, align 8, !tbaa !21
  %106 = load i64, ptr %14, align 8, !tbaa !21
  %107 = mul i64 %105, %106
  %108 = load ptr, ptr %10, align 8, !tbaa !11
  %109 = getelementptr inbounds nuw %struct.dt_iop_roi_t, ptr %108, i32 0, i32 2
  %110 = load i32, ptr %109, align 4, !tbaa !23
  %111 = sext i32 %110 to i64
  %112 = mul i64 %107, %111
  %113 = getelementptr inbounds nuw float, ptr %104, i64 %112
  store ptr %113, ptr %15, align 8, !tbaa !17
  call void @llvm.lifetime.start.p0(i64 8, ptr %16) #9
  %114 = load ptr, ptr %7, align 8, !tbaa !17
  %115 = load i64, ptr %8, align 8, !tbaa !21
  %116 = load ptr, ptr %9, align 8, !tbaa !11
  %117 = getelementptr inbounds nuw %struct.dt_iop_roi_t, ptr %116, i32 0, i32 2
  %118 = load i32, ptr %117, align 4, !tbaa !23
  %119 = sext i32 %118 to i64
  %120 = load i64, ptr %14, align 8, !tbaa !21
  %121 = load i32, ptr %11, align 4, !tbaa !13
  %122 = sext i32 %121 to i64
  %123 = add i64 %120, %122
  %124 = mul i64 %119, %123
  %125 = load i32, ptr %12, align 4, !tbaa !13
  %126 = sext i32 %125 to i64
  %127 = add i64 %124, %126
  %128 = mul i64 %115, %127
  %129 = getelementptr inbounds nuw float, ptr %114, i64 %128
  store ptr %129, ptr %16, align 8, !tbaa !17
  %130 = load ptr, ptr %15, align 8, !tbaa !17
  %131 = load ptr, ptr %16, align 8, !tbaa !17
  %132 = load i64, ptr %13, align 8, !tbaa !21
  call void @llvm.memcpy.p0.p0.i64(ptr align 4 %130, ptr align 4 %131, i64 %132, i1 false)
  call void @llvm.lifetime.end.p0(i64 8, ptr %16) #9
  call void @llvm.lifetime.end.p0(i64 8, ptr %15) #9
  br label %133

133:                                              ; preds = %103
  %134 = load i64, ptr %14, align 8, !tbaa !21
  %135 = add i64 %134, 1
  store i64 %135, ptr %14, align 8, !tbaa !21
  br label %95

136:                                              ; preds = %102
  store i32 1, ptr %17, align 4
  call void @llvm.lifetime.end.p0(i64 8, ptr %13) #9
  br label %238

137:                                              ; preds = %77, %53
  call void @llvm.lifetime.start.p0(i64 4, ptr %18) #9
  store i32 0, ptr %18, align 4, !tbaa !13
  br label %138

138:                                              ; preds = %234, %137
  %139 = load i32, ptr %18, align 4, !tbaa !13
  %140 = load ptr, ptr %10, align 8, !tbaa !11
  %141 = getelementptr inbounds nuw %struct.dt_iop_roi_t, ptr %140, i32 0, i32 3
  %142 = load i32, ptr %141, align 4, !tbaa !26
  %143 = icmp slt i32 %139, %142
  br i1 %143, label %145, label %144

144:                                              ; preds = %138
  store i32 5, ptr %17, align 4
  call void @llvm.lifetime.end.p0(i64 4, ptr %18) #9
  br label %237

145:                                              ; preds = %138
  call void @llvm.lifetime.start.p0(i64 4, ptr %19) #9
  store i32 0, ptr %19, align 4, !tbaa !13
  br label %146

146:                                              ; preds = %230, %145
  %147 = load i32, ptr %19, align 4, !tbaa !13
  %148 = load ptr, ptr %10, align 8, !tbaa !11
  %149 = getelementptr inbounds nuw %struct.dt_iop_roi_t, ptr %148, i32 0, i32 2
  %150 = load i32, ptr %149, align 4, !tbaa !23
  %151 = icmp slt i32 %147, %150
  br i1 %151, label %153, label %152

152:                                              ; preds = %146
  store i32 8, ptr %17, align 4
  call void @llvm.lifetime.end.p0(i64 4, ptr %19) #9
  br label %233

153:                                              ; preds = %146
  call void @llvm.lifetime.start.p0(i64 4, ptr %20) #9
  %154 = load i32, ptr %18, align 4, !tbaa !13
  %155 = load i32, ptr %11, align 4, !tbaa !13
  %156 = add nsw i32 %154, %155
  store i32 %156, ptr %20, align 4, !tbaa !13
  call void @llvm.lifetime.start.p0(i64 4, ptr %21) #9
  %157 = load i32, ptr %19, align 4, !tbaa !13
  %158 = load i32, ptr %12, align 4, !tbaa !13
  %159 = add nsw i32 %157, %158
  store i32 %159, ptr %21, align 4, !tbaa !13
  call void @llvm.lifetime.start.p0(i64 8, ptr %22) #9
  %160 = load i64, ptr %8, align 8, !tbaa !21
  %161 = load i32, ptr %18, align 4, !tbaa !13
  %162 = load ptr, ptr %10, align 8, !tbaa !11
  %163 = getelementptr inbounds nuw %struct.dt_iop_roi_t, ptr %162, i32 0, i32 2
  %164 = load i32, ptr %163, align 4, !tbaa !23
  %165 = mul nsw i32 %161, %164
  %166 = load i32, ptr %19, align 4, !tbaa !13
  %167 = add nsw i32 %165, %166
  %168 = sext i32 %167 to i64
  %169 = mul i64 %160, %168
  store i64 %169, ptr %22, align 8, !tbaa !21
  call void @llvm.lifetime.start.p0(i64 8, ptr %23) #9
  %170 = load i64, ptr %8, align 8, !tbaa !21
  %171 = load i32, ptr %20, align 4, !tbaa !13
  %172 = load ptr, ptr %9, align 8, !tbaa !11
  %173 = getelementptr inbounds nuw %struct.dt_iop_roi_t, ptr %172, i32 0, i32 2
  %174 = load i32, ptr %173, align 4, !tbaa !23
  %175 = mul nsw i32 %171, %174
  %176 = load i32, ptr %21, align 4, !tbaa !13
  %177 = add nsw i32 %175, %176
  %178 = sext i32 %177 to i64
  %179 = mul i64 %170, %178
  store i64 %179, ptr %23, align 8, !tbaa !21
  call void @llvm.lifetime.start.p0(i64 4, ptr %24) #9
  %180 = load i32, ptr %20, align 4, !tbaa !13
  %181 = icmp sge i32 %180, 0
  br i1 %181, label %182, label %197

182:                                              ; preds = %153
  %183 = load i32, ptr %20, align 4, !tbaa !13
  %184 = load ptr, ptr %9, align 8, !tbaa !11
  %185 = getelementptr inbounds nuw %struct.dt_iop_roi_t, ptr %184, i32 0, i32 3
  %186 = load i32, ptr %185, align 4, !tbaa !26
  %187 = icmp slt i32 %183, %186
  br i1 %187, label %188, label %197

188:                                              ; preds = %182
  %189 = load i32, ptr %21, align 4, !tbaa !13
  %190 = icmp sge i32 %189, 0
  br i1 %190, label %191, label %197

191:                                              ; preds = %188
  %192 = load i32, ptr %21, align 4, !tbaa !13
  %193 = load ptr, ptr %9, align 8, !tbaa !11
  %194 = getelementptr inbounds nuw %struct.dt_iop_roi_t, ptr %193, i32 0, i32 2
  %195 = load i32, ptr %194, align 4, !tbaa !23
  %196 = icmp slt i32 %192, %195
  br label %197

197:                                              ; preds = %191, %188, %182, %153
  %198 = phi i1 [ false, %188 ], [ false, %182 ], [ false, %153 ], [ %196, %191 ]
  %199 = zext i1 %198 to i32
  store i32 %199, ptr %24, align 4, !tbaa !13
  call void @llvm.lifetime.start.p0(i64 4, ptr %25) #9
  store i32 0, ptr %25, align 4, !tbaa !13
  br label %200

200:                                              ; preds = %226, %197
  %201 = load i32, ptr %25, align 4, !tbaa !13
  %202 = sext i32 %201 to i64
  %203 = load i64, ptr %8, align 8, !tbaa !21
  %204 = icmp ult i64 %202, %203
  br i1 %204, label %206, label %205

205:                                              ; preds = %200
  store i32 11, ptr %17, align 4
  call void @llvm.lifetime.end.p0(i64 4, ptr %25) #9
  br label %229

206:                                              ; preds = %200
  %207 = load i32, ptr %24, align 4, !tbaa !13
  %208 = icmp ne i32 %207, 0
  br i1 %208, label %209, label %217

209:                                              ; preds = %206
  %210 = load ptr, ptr %7, align 8, !tbaa !17
  %211 = load i64, ptr %23, align 8, !tbaa !21
  %212 = load i32, ptr %25, align 4, !tbaa !13
  %213 = sext i32 %212 to i64
  %214 = add i64 %211, %213
  %215 = getelementptr inbounds nuw float, ptr %210, i64 %214
  %216 = load float, ptr %215, align 4, !tbaa !29
  br label %218

217:                                              ; preds = %206
  br label %218

218:                                              ; preds = %217, %209
  %219 = phi reassoc nsz arcp contract afn float [ %216, %209 ], [ 0.000000e+00, %217 ]
  %220 = load ptr, ptr %6, align 8, !tbaa !17
  %221 = load i64, ptr %22, align 8, !tbaa !21
  %222 = load i32, ptr %25, align 4, !tbaa !13
  %223 = sext i32 %222 to i64
  %224 = add i64 %221, %223
  %225 = getelementptr inbounds nuw float, ptr %220, i64 %224
  store float %219, ptr %225, align 4, !tbaa !29
  br label %226

226:                                              ; preds = %218
  %227 = load i32, ptr %25, align 4, !tbaa !13
  %228 = add nsw i32 %227, 1
  store i32 %228, ptr %25, align 4, !tbaa !13
  br label %200

229:                                              ; preds = %205
  call void @llvm.lifetime.end.p0(i64 4, ptr %24) #9
  call void @llvm.lifetime.end.p0(i64 8, ptr %23) #9
  call void @llvm.lifetime.end.p0(i64 8, ptr %22) #9
  call void @llvm.lifetime.end.p0(i64 4, ptr %21) #9
  call void @llvm.lifetime.end.p0(i64 4, ptr %20) #9
  br label %230

230:                                              ; preds = %229
  %231 = load i32, ptr %19, align 4, !tbaa !13
  %232 = add nsw i32 %231, 1
  store i32 %232, ptr %19, align 4, !tbaa !13
  br label %146

233:                                              ; preds = %152
  br label %234

234:                                              ; preds = %233
  %235 = load i32, ptr %18, align 4, !tbaa !13
  %236 = add nsw i32 %235, 1
  store i32 %236, ptr %18, align 4, !tbaa !13
  br label %138

237:                                              ; preds = %144
  store i32 0, ptr %17, align 4
  br label %238

238:                                              ; preds = %237, %136
  call void @llvm.lifetime.end.p0(i64 4, ptr %12) #9
  call void @llvm.lifetime.end.p0(i64 4, ptr %11) #9
  %239 = load i32, ptr %17, align 4
  switch i32 %239, label %241 [
    i32 0, label %240
    i32 1, label %240
  ]

240:                                              ; preds = %41, %238, %238
  ret void

241:                                              ; preds = %238
  unreachable
}