; Function Attrs: nofree norecurse nosync nounwind memory(argmem: readwrite) uwtable
define void @dt_iop_copy_image_roi(ptr noalias noundef writeonly captures(none) %0, ptr noalias noundef readonly captures(none) %1, i64 noundef %2, ptr noalias noundef readonly captures(none) %3, ptr noalias noundef readonly captures(none) %4) local_unnamed_addr #9 {
  %6 = getelementptr inbounds nuw i8, ptr %3, i64 8
  %7 = load i32, ptr %6, align 4, !tbaa !17
  %8 = getelementptr inbounds nuw i8, ptr %4, i64 8
  %9 = load i32, ptr %8, align 4, !tbaa !17
  %10 = icmp eq i32 %7, %9
  br i1 %10, label %11, label %23

11:                                               ; preds = %5
  %12 = getelementptr inbounds nuw i8, ptr %3, i64 12
  %13 = load i32, ptr %12, align 4, !tbaa !20
  %14 = getelementptr inbounds nuw i8, ptr %4, i64 12
  %15 = load i32, ptr %14, align 4, !tbaa !20
  %16 = icmp eq i32 %13, %15
  br i1 %16, label %17, label %23

17:                                               ; preds = %11
  %18 = sext i32 %7 to i64
  %19 = sext i32 %13 to i64
  %20 = shl i64 %2, 2
  %21 = mul i64 %20, %18
  %22 = mul i64 %21, %19
  tail call void @llvm.memcpy.p0.p0.i64(ptr align 4 %0, ptr readonly align 4 %1, i64 %22, i1 false), !alias.scope !23
  br label %.loopexit

23:                                               ; preds = %11, %5
  %24 = getelementptr inbounds nuw i8, ptr %4, i64 4
  %25 = load i32, ptr %24, align 4, !tbaa !30
  %26 = getelementptr inbounds nuw i8, ptr %3, i64 4
  %27 = load i32, ptr %26, align 4, !tbaa !30
  %28 = sub i32 %25, %27
  %29 = load i32, ptr %4, align 4, !tbaa !31
  %30 = load i32, ptr %3, align 4, !tbaa !31
  %31 = sub nsw i32 %29, %30
  %32 = sub nsw i32 %7, %31
  %.not = icmp slt i32 %32, %9
  br i1 %.not, label %._crit_edge, label %33

._crit_edge:                                      ; preds = %23
  %.phi.trans.insert = getelementptr inbounds nuw i8, ptr %4, i64 12
  %.pre = load i32, ptr %.phi.trans.insert, align 4, !tbaa !20
  br label %57

33:                                               ; preds = %23
  %34 = getelementptr inbounds nuw i8, ptr %3, i64 12
  %35 = load i32, ptr %34, align 4, !tbaa !20
  %36 = sub nsw i32 %35, %28
  %37 = getelementptr inbounds nuw i8, ptr %4, i64 12
  %38 = load i32, ptr %37, align 4, !tbaa !20
  %.not81 = icmp slt i32 %36, %38
  br i1 %.not81, label %57, label %39

39:                                               ; preds = %33
  %40 = sext i32 %9 to i64
  %41 = shl i64 %2, 2
  %42 = mul i64 %41, %40
  %43 = sext i32 %38 to i64
  %.not99 = icmp eq i32 %38, 0
  br i1 %.not99, label %.loopexit, label %.lr.ph

.lr.ph:                                           ; preds = %39
  %44 = mul i64 %2, %40
  %45 = sext i32 %7 to i64
  %46 = sext i32 %28 to i64
  %47 = sext i32 %31 to i64
  br label %48

48:                                               ; preds = %.lr.ph, %48
  %.07183 = phi i64 [ 0, %.lr.ph ], [ %56, %48 ]
  %49 = mul i64 %44, %.07183
  %50 = getelementptr inbounds nuw float, ptr %0, i64 %49
  %51 = add i64 %.07183, %46
  %52 = mul i64 %51, %45
  %53 = add i64 %52, %47
  %54 = mul i64 %53, %2
  %55 = getelementptr inbounds nuw float, ptr %1, i64 %54
  tail call void @llvm.memcpy.p0.p0.i64(ptr align 4 %50, ptr align 4 %55, i64 %42, i1 false)
  %56 = add nuw i64 %.07183, 1
  %exitcond.not = icmp eq i64 %56, %43
  br i1 %exitcond.not, label %.loopexit, label %48

57:                                               ; preds = %._crit_edge, %33
  %58 = phi i32 [ %.pre, %._crit_edge ], [ %38, %33 ]
  %59 = icmp sgt i32 %58, 0
  br i1 %59, label %.preheader.lr.ph, label %.loopexit

.preheader.lr.ph:                                 ; preds = %57
  %60 = icmp slt i32 %9, 1
  %61 = getelementptr inbounds nuw i8, ptr %3, i64 12
  %.not100 = icmp eq i64 %2, 0
  %or.cond = or i1 %60, %.not100
  br i1 %or.cond, label %.loopexit, label %.preheader.us.us.preheader

.preheader.us.us.preheader:                       ; preds = %.preheader.lr.ph
  %62 = shl i64 %2, 2
  %63 = zext nneg i32 %9 to i64
  %64 = mul i64 %2, %63
  %65 = shl i64 %64, 2
  %66 = mul i32 %7, %28
  %67 = add i32 %29, %66
  %68 = sub i32 %67, %30
  %69 = sext i32 %28 to i64
  %wide.trip.count123 = zext nneg i32 %58 to i64
  br label %.preheader.us.us

.preheader.us.us:                                 ; preds = %.preheader.us.us.preheader, %._crit_edge88.split.us.us.us
  %indvars.iv120 = phi i64 [ 0, %.preheader.us.us.preheader ], [ %indvars.iv.next121, %._crit_edge88.split.us.us.us ]
  %70 = trunc nuw nsw i64 %indvars.iv120 to i32
  %71 = mul i32 %9, %70
  %72 = mul i32 %7, %70
  %73 = add i32 %68, %72
  %74 = zext i32 %71 to i64
  %75 = mul i64 %62, %74
  %scevgep112 = getelementptr i8, ptr %0, i64 %75
  %76 = add nsw i64 %indvars.iv120, %69
  %77 = icmp sgt i64 %76, -1
  br i1 %77, label %.lr.ph87.split.us.us.us.split.us, label %._crit_edge88.split.us.us.us.sink.split

.lr.ph87.split.us.us.us.split.us:                 ; preds = %.preheader.us.us
  %78 = load i32, ptr %61, align 4, !tbaa !20
  %79 = sext i32 %78 to i64
  %80 = icmp slt i64 %76, %79
  %.fr = freeze i1 %80
  br i1 %.fr, label %.lr.ph85.us.us.us.us, label %._crit_edge88.split.us.us.us.sink.split

.lr.ph85.us.us.us.us:                             ; preds = %.lr.ph87.split.us.us.us.split.us, %._crit_edge.us.us.us.us
  %indvars.iv = phi i64 [ %indvars.iv.next, %._crit_edge.us.us.us.us ], [ 0, %.lr.ph87.split.us.us.us.split.us ]
  %indvars118 = trunc i64 %indvars.iv to i32
  %81 = add i32 %71, %indvars118
  %82 = zext i32 %81 to i64
  %83 = mul i64 %62, %82
  %scevgep115 = getelementptr i8, ptr %0, i64 %83
  %84 = add nsw i32 %31, %indvars118
  %85 = icmp sgt i32 %84, -1
  %86 = icmp slt i32 %84, %7
  %87 = and i1 %85, %86
  br i1 %87, label %.lr.ph85.split.us.us.us.us.us.preheader, label %.lr.ph85.split.us91.us.us.us.preheader

.lr.ph85.split.us91.us.us.us.preheader:           ; preds = %.lr.ph85.us.us.us.us
  tail call void @llvm.memset.p0.i64(ptr align 4 %scevgep115, i8 0, i64 %62, i1 false), !tbaa !32
  br label %._crit_edge.us.us.us.us

.lr.ph85.split.us.us.us.us.us.preheader:          ; preds = %.lr.ph85.us.us.us.us
  %88 = add i32 %73, %indvars118
  %89 = sext i32 %88 to i64
  %90 = mul i64 %62, %89
  %scevgep116 = getelementptr i8, ptr %1, i64 %90
  tail call void @llvm.memcpy.p0.p0.i64(ptr align 4 %scevgep115, ptr align 4 %scevgep116, i64 %62, i1 false), !tbaa !32
  br label %._crit_edge.us.us.us.us

._crit_edge.us.us.us.us:                          ; preds = %.lr.ph85.split.us91.us.us.us.preheader, %.lr.ph85.split.us.us.us.us.us.preheader
  %indvars.iv.next = add nuw nsw i64 %indvars.iv, 1
  %exitcond119.not = icmp eq i64 %indvars.iv.next, %63
  br i1 %exitcond119.not, label %._crit_edge88.split.us.us.us, label %.lr.ph85.us.us.us.us

._crit_edge88.split.us.us.us.sink.split:          ; preds = %.lr.ph87.split.us.us.us.split.us, %.preheader.us.us
  tail call void @llvm.memset.p0.i64(ptr align 4 %scevgep112, i8 0, i64 %65, i1 false), !tbaa !32
  br label %._crit_edge88.split.us.us.us

._crit_edge88.split.us.us.us:                     ; preds = %._crit_edge.us.us.us.us, %._crit_edge88.split.us.us.us.sink.split
  %indvars.iv.next121 = add nuw nsw i64 %indvars.iv120, 1
  %exitcond124.not = icmp eq i64 %indvars.iv.next121, %wide.trip.count123
  br i1 %exitcond124.not, label %.loopexit, label %.preheader.us.us

.loopexit:                                        ; preds = %48, %._crit_edge88.split.us.us.us, %.preheader.lr.ph, %39, %57, %17
  ret void
}